(dp0
Vengine
p1
Vpdflatex
p2
sVpackages
p3
c__builtin__
set
p4
((lp5
Vcomment
p6
aVhyperref
p7
aVbbm
p8
aVtabularx
p9
aValgorithmic
p10
aValgorithm
p11
aVverbatim
p12
aVcolor
p13
aVmathtools
p14
aVdsfont
p15
aVamsmath
p16
aVurl
p17
aVfontenc
p18
aVamsfonts
p19
aVcolor-edits
p20
aVamssymb
p21
aVpsfrag
p22
atp23
Rp24
sVfiles_with_guttermarks
p25
g4
((lp26
V/usr/local/texlive/2013/texmf-dist/tex/latex/enumitem/enumitem.sty
p27
aS'main.tex'
p28
atp29
Rp30
sVsynctex
p31
I01
s.